
;CodeVisionAVR C Compiler V2.05.3 Standard
;(C) Copyright 1998-2011 Pavel Haiduc, HP InfoTech s.r.l.
;http://www.hpinfotech.com

;Chip type                : ATmega16L
;Program type             : Application
;Clock frequency          : 1.000000 MHz
;Memory model             : Small
;Optimize for             : Size
;(s)printf features       : int, width
;(s)scanf features        : int, width
;External RAM size        : 0
;Data Stack size          : 256 byte(s)
;Heap size                : 0 byte(s)
;Promote 'char' to 'int'  : Yes
;'char' is unsigned       : Yes
;8 bit enums              : Yes
;Global 'const' stored in FLASH     : No
;Enhanced function parameter passing: Yes
;Enhanced core instructions         : On
;Smart register allocation          : On
;Automatic register allocation      : On

	#pragma AVRPART ADMIN PART_NAME ATmega16L
	#pragma AVRPART MEMORY PROG_FLASH 16384
	#pragma AVRPART MEMORY EEPROM 512
	#pragma AVRPART MEMORY INT_SRAM SIZE 1119
	#pragma AVRPART MEMORY INT_SRAM START_ADDR 0x60

	#define CALL_SUPPORTED 1

	.LISTMAC
	.EQU UDRE=0x5
	.EQU RXC=0x7
	.EQU USR=0xB
	.EQU UDR=0xC
	.EQU SPSR=0xE
	.EQU SPDR=0xF
	.EQU EERE=0x0
	.EQU EEWE=0x1
	.EQU EEMWE=0x2
	.EQU EECR=0x1C
	.EQU EEDR=0x1D
	.EQU EEARL=0x1E
	.EQU EEARH=0x1F
	.EQU WDTCR=0x21
	.EQU MCUCR=0x35
	.EQU GICR=0x3B
	.EQU SPL=0x3D
	.EQU SPH=0x3E
	.EQU SREG=0x3F

	.DEF R0X0=R0
	.DEF R0X1=R1
	.DEF R0X2=R2
	.DEF R0X3=R3
	.DEF R0X4=R4
	.DEF R0X5=R5
	.DEF R0X6=R6
	.DEF R0X7=R7
	.DEF R0X8=R8
	.DEF R0X9=R9
	.DEF R0XA=R10
	.DEF R0XB=R11
	.DEF R0XC=R12
	.DEF R0XD=R13
	.DEF R0XE=R14
	.DEF R0XF=R15
	.DEF R0X10=R16
	.DEF R0X11=R17
	.DEF R0X12=R18
	.DEF R0X13=R19
	.DEF R0X14=R20
	.DEF R0X15=R21
	.DEF R0X16=R22
	.DEF R0X17=R23
	.DEF R0X18=R24
	.DEF R0X19=R25
	.DEF R0X1A=R26
	.DEF R0X1B=R27
	.DEF R0X1C=R28
	.DEF R0X1D=R29
	.DEF R0X1E=R30
	.DEF R0X1F=R31

	.EQU __SRAM_START=0x0060
	.EQU __SRAM_END=0x045F
	.EQU __DSTACK_SIZE=0x0100
	.EQU __HEAP_SIZE=0x0000
	.EQU __CLEAR_SRAM_SIZE=__SRAM_END-__SRAM_START+1

	.MACRO __CPD1N
	CPI  R30,LOW(@0)
	LDI  R26,HIGH(@0)
	CPC  R31,R26
	LDI  R26,BYTE3(@0)
	CPC  R22,R26
	LDI  R26,BYTE4(@0)
	CPC  R23,R26
	.ENDM

	.MACRO __CPD2N
	CPI  R26,LOW(@0)
	LDI  R30,HIGH(@0)
	CPC  R27,R30
	LDI  R30,BYTE3(@0)
	CPC  R24,R30
	LDI  R30,BYTE4(@0)
	CPC  R25,R30
	.ENDM

	.MACRO __CPWRR
	CP   R@0,R@2
	CPC  R@1,R@3
	.ENDM

	.MACRO __CPWRN
	CPI  R@0,LOW(@2)
	LDI  R30,HIGH(@2)
	CPC  R@1,R30
	.ENDM

	.MACRO __ADDB1MN
	SUBI R30,LOW(-@0-(@1))
	.ENDM

	.MACRO __ADDB2MN
	SUBI R26,LOW(-@0-(@1))
	.ENDM

	.MACRO __ADDW1MN
	SUBI R30,LOW(-@0-(@1))
	SBCI R31,HIGH(-@0-(@1))
	.ENDM

	.MACRO __ADDW2MN
	SUBI R26,LOW(-@0-(@1))
	SBCI R27,HIGH(-@0-(@1))
	.ENDM

	.MACRO __ADDW1FN
	SUBI R30,LOW(-2*@0-(@1))
	SBCI R31,HIGH(-2*@0-(@1))
	.ENDM

	.MACRO __ADDD1FN
	SUBI R30,LOW(-2*@0-(@1))
	SBCI R31,HIGH(-2*@0-(@1))
	SBCI R22,BYTE3(-2*@0-(@1))
	.ENDM

	.MACRO __ADDD1N
	SUBI R30,LOW(-@0)
	SBCI R31,HIGH(-@0)
	SBCI R22,BYTE3(-@0)
	SBCI R23,BYTE4(-@0)
	.ENDM

	.MACRO __ADDD2N
	SUBI R26,LOW(-@0)
	SBCI R27,HIGH(-@0)
	SBCI R24,BYTE3(-@0)
	SBCI R25,BYTE4(-@0)
	.ENDM

	.MACRO __SUBD1N
	SUBI R30,LOW(@0)
	SBCI R31,HIGH(@0)
	SBCI R22,BYTE3(@0)
	SBCI R23,BYTE4(@0)
	.ENDM

	.MACRO __SUBD2N
	SUBI R26,LOW(@0)
	SBCI R27,HIGH(@0)
	SBCI R24,BYTE3(@0)
	SBCI R25,BYTE4(@0)
	.ENDM

	.MACRO __ANDBMNN
	LDS  R30,@0+(@1)
	ANDI R30,LOW(@2)
	STS  @0+(@1),R30
	.ENDM

	.MACRO __ANDWMNN
	LDS  R30,@0+(@1)
	ANDI R30,LOW(@2)
	STS  @0+(@1),R30
	LDS  R30,@0+(@1)+1
	ANDI R30,HIGH(@2)
	STS  @0+(@1)+1,R30
	.ENDM

	.MACRO __ANDD1N
	ANDI R30,LOW(@0)
	ANDI R31,HIGH(@0)
	ANDI R22,BYTE3(@0)
	ANDI R23,BYTE4(@0)
	.ENDM

	.MACRO __ANDD2N
	ANDI R26,LOW(@0)
	ANDI R27,HIGH(@0)
	ANDI R24,BYTE3(@0)
	ANDI R25,BYTE4(@0)
	.ENDM

	.MACRO __ORBMNN
	LDS  R30,@0+(@1)
	ORI  R30,LOW(@2)
	STS  @0+(@1),R30
	.ENDM

	.MACRO __ORWMNN
	LDS  R30,@0+(@1)
	ORI  R30,LOW(@2)
	STS  @0+(@1),R30
	LDS  R30,@0+(@1)+1
	ORI  R30,HIGH(@2)
	STS  @0+(@1)+1,R30
	.ENDM

	.MACRO __ORD1N
	ORI  R30,LOW(@0)
	ORI  R31,HIGH(@0)
	ORI  R22,BYTE3(@0)
	ORI  R23,BYTE4(@0)
	.ENDM

	.MACRO __ORD2N
	ORI  R26,LOW(@0)
	ORI  R27,HIGH(@0)
	ORI  R24,BYTE3(@0)
	ORI  R25,BYTE4(@0)
	.ENDM

	.MACRO __DELAY_USB
	LDI  R24,LOW(@0)
__DELAY_USB_LOOP:
	DEC  R24
	BRNE __DELAY_USB_LOOP
	.ENDM

	.MACRO __DELAY_USW
	LDI  R24,LOW(@0)
	LDI  R25,HIGH(@0)
__DELAY_USW_LOOP:
	SBIW R24,1
	BRNE __DELAY_USW_LOOP
	.ENDM

	.MACRO __GETD1S
	LDD  R30,Y+@0
	LDD  R31,Y+@0+1
	LDD  R22,Y+@0+2
	LDD  R23,Y+@0+3
	.ENDM

	.MACRO __GETD2S
	LDD  R26,Y+@0
	LDD  R27,Y+@0+1
	LDD  R24,Y+@0+2
	LDD  R25,Y+@0+3
	.ENDM

	.MACRO __PUTD1S
	STD  Y+@0,R30
	STD  Y+@0+1,R31
	STD  Y+@0+2,R22
	STD  Y+@0+3,R23
	.ENDM

	.MACRO __PUTD2S
	STD  Y+@0,R26
	STD  Y+@0+1,R27
	STD  Y+@0+2,R24
	STD  Y+@0+3,R25
	.ENDM

	.MACRO __PUTDZ2
	STD  Z+@0,R26
	STD  Z+@0+1,R27
	STD  Z+@0+2,R24
	STD  Z+@0+3,R25
	.ENDM

	.MACRO __CLRD1S
	STD  Y+@0,R30
	STD  Y+@0+1,R30
	STD  Y+@0+2,R30
	STD  Y+@0+3,R30
	.ENDM

	.MACRO __POINTB1MN
	LDI  R30,LOW(@0+(@1))
	.ENDM

	.MACRO __POINTW1MN
	LDI  R30,LOW(@0+(@1))
	LDI  R31,HIGH(@0+(@1))
	.ENDM

	.MACRO __POINTD1M
	LDI  R30,LOW(@0)
	LDI  R31,HIGH(@0)
	LDI  R22,BYTE3(@0)
	LDI  R23,BYTE4(@0)
	.ENDM

	.MACRO __POINTW1FN
	LDI  R30,LOW(2*@0+(@1))
	LDI  R31,HIGH(2*@0+(@1))
	.ENDM

	.MACRO __POINTD1FN
	LDI  R30,LOW(2*@0+(@1))
	LDI  R31,HIGH(2*@0+(@1))
	LDI  R22,BYTE3(2*@0+(@1))
	LDI  R23,BYTE4(2*@0+(@1))
	.ENDM

	.MACRO __POINTB2MN
	LDI  R26,LOW(@0+(@1))
	.ENDM

	.MACRO __POINTW2MN
	LDI  R26,LOW(@0+(@1))
	LDI  R27,HIGH(@0+(@1))
	.ENDM

	.MACRO __POINTW2FN
	LDI  R26,LOW(2*@0+(@1))
	LDI  R27,HIGH(2*@0+(@1))
	.ENDM

	.MACRO __POINTD2FN
	LDI  R26,LOW(2*@0+(@1))
	LDI  R27,HIGH(2*@0+(@1))
	LDI  R24,BYTE3(2*@0+(@1))
	LDI  R25,BYTE4(2*@0+(@1))
	.ENDM

	.MACRO __POINTBRM
	LDI  R@0,LOW(@1)
	.ENDM

	.MACRO __POINTWRM
	LDI  R@0,LOW(@2)
	LDI  R@1,HIGH(@2)
	.ENDM

	.MACRO __POINTBRMN
	LDI  R@0,LOW(@1+(@2))
	.ENDM

	.MACRO __POINTWRMN
	LDI  R@0,LOW(@2+(@3))
	LDI  R@1,HIGH(@2+(@3))
	.ENDM

	.MACRO __POINTWRFN
	LDI  R@0,LOW(@2*2+(@3))
	LDI  R@1,HIGH(@2*2+(@3))
	.ENDM

	.MACRO __GETD1N
	LDI  R30,LOW(@0)
	LDI  R31,HIGH(@0)
	LDI  R22,BYTE3(@0)
	LDI  R23,BYTE4(@0)
	.ENDM

	.MACRO __GETD2N
	LDI  R26,LOW(@0)
	LDI  R27,HIGH(@0)
	LDI  R24,BYTE3(@0)
	LDI  R25,BYTE4(@0)
	.ENDM

	.MACRO __GETB1MN
	LDS  R30,@0+(@1)
	.ENDM

	.MACRO __GETB1HMN
	LDS  R31,@0+(@1)
	.ENDM

	.MACRO __GETW1MN
	LDS  R30,@0+(@1)
	LDS  R31,@0+(@1)+1
	.ENDM

	.MACRO __GETD1MN
	LDS  R30,@0+(@1)
	LDS  R31,@0+(@1)+1
	LDS  R22,@0+(@1)+2
	LDS  R23,@0+(@1)+3
	.ENDM

	.MACRO __GETBRMN
	LDS  R@0,@1+(@2)
	.ENDM

	.MACRO __GETWRMN
	LDS  R@0,@2+(@3)
	LDS  R@1,@2+(@3)+1
	.ENDM

	.MACRO __GETWRZ
	LDD  R@0,Z+@2
	LDD  R@1,Z+@2+1
	.ENDM

	.MACRO __GETD2Z
	LDD  R26,Z+@0
	LDD  R27,Z+@0+1
	LDD  R24,Z+@0+2
	LDD  R25,Z+@0+3
	.ENDM

	.MACRO __GETB2MN
	LDS  R26,@0+(@1)
	.ENDM

	.MACRO __GETW2MN
	LDS  R26,@0+(@1)
	LDS  R27,@0+(@1)+1
	.ENDM

	.MACRO __GETD2MN
	LDS  R26,@0+(@1)
	LDS  R27,@0+(@1)+1
	LDS  R24,@0+(@1)+2
	LDS  R25,@0+(@1)+3
	.ENDM

	.MACRO __PUTB1MN
	STS  @0+(@1),R30
	.ENDM

	.MACRO __PUTW1MN
	STS  @0+(@1),R30
	STS  @0+(@1)+1,R31
	.ENDM

	.MACRO __PUTD1MN
	STS  @0+(@1),R30
	STS  @0+(@1)+1,R31
	STS  @0+(@1)+2,R22
	STS  @0+(@1)+3,R23
	.ENDM

	.MACRO __PUTB1EN
	LDI  R26,LOW(@0+(@1))
	LDI  R27,HIGH(@0+(@1))
	CALL __EEPROMWRB
	.ENDM

	.MACRO __PUTW1EN
	LDI  R26,LOW(@0+(@1))
	LDI  R27,HIGH(@0+(@1))
	CALL __EEPROMWRW
	.ENDM

	.MACRO __PUTD1EN
	LDI  R26,LOW(@0+(@1))
	LDI  R27,HIGH(@0+(@1))
	CALL __EEPROMWRD
	.ENDM

	.MACRO __PUTBR0MN
	STS  @0+(@1),R0
	.ENDM

	.MACRO __PUTBMRN
	STS  @0+(@1),R@2
	.ENDM

	.MACRO __PUTWMRN
	STS  @0+(@1),R@2
	STS  @0+(@1)+1,R@3
	.ENDM

	.MACRO __PUTBZR
	STD  Z+@1,R@0
	.ENDM

	.MACRO __PUTWZR
	STD  Z+@2,R@0
	STD  Z+@2+1,R@1
	.ENDM

	.MACRO __GETW1R
	MOV  R30,R@0
	MOV  R31,R@1
	.ENDM

	.MACRO __GETW2R
	MOV  R26,R@0
	MOV  R27,R@1
	.ENDM

	.MACRO __GETWRN
	LDI  R@0,LOW(@2)
	LDI  R@1,HIGH(@2)
	.ENDM

	.MACRO __PUTW1R
	MOV  R@0,R30
	MOV  R@1,R31
	.ENDM

	.MACRO __PUTW2R
	MOV  R@0,R26
	MOV  R@1,R27
	.ENDM

	.MACRO __ADDWRN
	SUBI R@0,LOW(-@2)
	SBCI R@1,HIGH(-@2)
	.ENDM

	.MACRO __ADDWRR
	ADD  R@0,R@2
	ADC  R@1,R@3
	.ENDM

	.MACRO __SUBWRN
	SUBI R@0,LOW(@2)
	SBCI R@1,HIGH(@2)
	.ENDM

	.MACRO __SUBWRR
	SUB  R@0,R@2
	SBC  R@1,R@3
	.ENDM

	.MACRO __ANDWRN
	ANDI R@0,LOW(@2)
	ANDI R@1,HIGH(@2)
	.ENDM

	.MACRO __ANDWRR
	AND  R@0,R@2
	AND  R@1,R@3
	.ENDM

	.MACRO __ORWRN
	ORI  R@0,LOW(@2)
	ORI  R@1,HIGH(@2)
	.ENDM

	.MACRO __ORWRR
	OR   R@0,R@2
	OR   R@1,R@3
	.ENDM

	.MACRO __EORWRR
	EOR  R@0,R@2
	EOR  R@1,R@3
	.ENDM

	.MACRO __GETWRS
	LDD  R@0,Y+@2
	LDD  R@1,Y+@2+1
	.ENDM

	.MACRO __PUTBSR
	STD  Y+@1,R@0
	.ENDM

	.MACRO __PUTWSR
	STD  Y+@2,R@0
	STD  Y+@2+1,R@1
	.ENDM

	.MACRO __MOVEWRR
	MOV  R@0,R@2
	MOV  R@1,R@3
	.ENDM

	.MACRO __INWR
	IN   R@0,@2
	IN   R@1,@2+1
	.ENDM

	.MACRO __OUTWR
	OUT  @2+1,R@1
	OUT  @2,R@0
	.ENDM

	.MACRO __CALL1MN
	LDS  R30,@0+(@1)
	LDS  R31,@0+(@1)+1
	ICALL
	.ENDM

	.MACRO __CALL1FN
	LDI  R30,LOW(2*@0+(@1))
	LDI  R31,HIGH(2*@0+(@1))
	CALL __GETW1PF
	ICALL
	.ENDM

	.MACRO __CALL2EN
	LDI  R26,LOW(@0+(@1))
	LDI  R27,HIGH(@0+(@1))
	CALL __EEPROMRDW
	ICALL
	.ENDM

	.MACRO __GETW1STACK
	IN   R26,SPL
	IN   R27,SPH
	ADIW R26,@0+1
	LD   R30,X+
	LD   R31,X
	.ENDM

	.MACRO __GETD1STACK
	IN   R26,SPL
	IN   R27,SPH
	ADIW R26,@0+1
	LD   R30,X+
	LD   R31,X+
	LD   R22,X
	.ENDM

	.MACRO __NBST
	BST  R@0,@1
	IN   R30,SREG
	LDI  R31,0x40
	EOR  R30,R31
	OUT  SREG,R30
	.ENDM


	.MACRO __PUTB1SN
	LDD  R26,Y+@0
	LDD  R27,Y+@0+1
	SUBI R26,LOW(-@1)
	SBCI R27,HIGH(-@1)
	ST   X,R30
	.ENDM

	.MACRO __PUTW1SN
	LDD  R26,Y+@0
	LDD  R27,Y+@0+1
	SUBI R26,LOW(-@1)
	SBCI R27,HIGH(-@1)
	ST   X+,R30
	ST   X,R31
	.ENDM

	.MACRO __PUTD1SN
	LDD  R26,Y+@0
	LDD  R27,Y+@0+1
	SUBI R26,LOW(-@1)
	SBCI R27,HIGH(-@1)
	CALL __PUTDP1
	.ENDM

	.MACRO __PUTB1SNS
	LDD  R26,Y+@0
	LDD  R27,Y+@0+1
	ADIW R26,@1
	ST   X,R30
	.ENDM

	.MACRO __PUTW1SNS
	LDD  R26,Y+@0
	LDD  R27,Y+@0+1
	ADIW R26,@1
	ST   X+,R30
	ST   X,R31
	.ENDM

	.MACRO __PUTD1SNS
	LDD  R26,Y+@0
	LDD  R27,Y+@0+1
	ADIW R26,@1
	CALL __PUTDP1
	.ENDM

	.MACRO __PUTB1PMN
	LDS  R26,@0
	LDS  R27,@0+1
	SUBI R26,LOW(-@1)
	SBCI R27,HIGH(-@1)
	ST   X,R30
	.ENDM

	.MACRO __PUTW1PMN
	LDS  R26,@0
	LDS  R27,@0+1
	SUBI R26,LOW(-@1)
	SBCI R27,HIGH(-@1)
	ST   X+,R30
	ST   X,R31
	.ENDM

	.MACRO __PUTD1PMN
	LDS  R26,@0
	LDS  R27,@0+1
	SUBI R26,LOW(-@1)
	SBCI R27,HIGH(-@1)
	CALL __PUTDP1
	.ENDM

	.MACRO __PUTB1PMNS
	LDS  R26,@0
	LDS  R27,@0+1
	ADIW R26,@1
	ST   X,R30
	.ENDM

	.MACRO __PUTW1PMNS
	LDS  R26,@0
	LDS  R27,@0+1
	ADIW R26,@1
	ST   X+,R30
	ST   X,R31
	.ENDM

	.MACRO __PUTD1PMNS
	LDS  R26,@0
	LDS  R27,@0+1
	ADIW R26,@1
	CALL __PUTDP1
	.ENDM

	.MACRO __PUTB1RN
	MOVW R26,R@0
	SUBI R26,LOW(-@1)
	SBCI R27,HIGH(-@1)
	ST   X,R30
	.ENDM

	.MACRO __PUTW1RN
	MOVW R26,R@0
	SUBI R26,LOW(-@1)
	SBCI R27,HIGH(-@1)
	ST   X+,R30
	ST   X,R31
	.ENDM

	.MACRO __PUTD1RN
	MOVW R26,R@0
	SUBI R26,LOW(-@1)
	SBCI R27,HIGH(-@1)
	CALL __PUTDP1
	.ENDM

	.MACRO __PUTB1RNS
	MOVW R26,R@0
	ADIW R26,@1
	ST   X,R30
	.ENDM

	.MACRO __PUTW1RNS
	MOVW R26,R@0
	ADIW R26,@1
	ST   X+,R30
	ST   X,R31
	.ENDM

	.MACRO __PUTD1RNS
	MOVW R26,R@0
	ADIW R26,@1
	CALL __PUTDP1
	.ENDM

	.MACRO __PUTB1RON
	MOV  R26,R@0
	MOV  R27,R@1
	SUBI R26,LOW(-@2)
	SBCI R27,HIGH(-@2)
	ST   X,R30
	.ENDM

	.MACRO __PUTW1RON
	MOV  R26,R@0
	MOV  R27,R@1
	SUBI R26,LOW(-@2)
	SBCI R27,HIGH(-@2)
	ST   X+,R30
	ST   X,R31
	.ENDM

	.MACRO __PUTD1RON
	MOV  R26,R@0
	MOV  R27,R@1
	SUBI R26,LOW(-@2)
	SBCI R27,HIGH(-@2)
	CALL __PUTDP1
	.ENDM

	.MACRO __PUTB1RONS
	MOV  R26,R@0
	MOV  R27,R@1
	ADIW R26,@2
	ST   X,R30
	.ENDM

	.MACRO __PUTW1RONS
	MOV  R26,R@0
	MOV  R27,R@1
	ADIW R26,@2
	ST   X+,R30
	ST   X,R31
	.ENDM

	.MACRO __PUTD1RONS
	MOV  R26,R@0
	MOV  R27,R@1
	ADIW R26,@2
	CALL __PUTDP1
	.ENDM


	.MACRO __GETB1SX
	MOVW R30,R28
	SUBI R30,LOW(-@0)
	SBCI R31,HIGH(-@0)
	LD   R30,Z
	.ENDM

	.MACRO __GETB1HSX
	MOVW R30,R28
	SUBI R30,LOW(-@0)
	SBCI R31,HIGH(-@0)
	LD   R31,Z
	.ENDM

	.MACRO __GETW1SX
	MOVW R30,R28
	SUBI R30,LOW(-@0)
	SBCI R31,HIGH(-@0)
	LD   R0,Z+
	LD   R31,Z
	MOV  R30,R0
	.ENDM

	.MACRO __GETD1SX
	MOVW R30,R28
	SUBI R30,LOW(-@0)
	SBCI R31,HIGH(-@0)
	LD   R0,Z+
	LD   R1,Z+
	LD   R22,Z+
	LD   R23,Z
	MOVW R30,R0
	.ENDM

	.MACRO __GETB2SX
	MOVW R26,R28
	SUBI R26,LOW(-@0)
	SBCI R27,HIGH(-@0)
	LD   R26,X
	.ENDM

	.MACRO __GETW2SX
	MOVW R26,R28
	SUBI R26,LOW(-@0)
	SBCI R27,HIGH(-@0)
	LD   R0,X+
	LD   R27,X
	MOV  R26,R0
	.ENDM

	.MACRO __GETD2SX
	MOVW R26,R28
	SUBI R26,LOW(-@0)
	SBCI R27,HIGH(-@0)
	LD   R0,X+
	LD   R1,X+
	LD   R24,X+
	LD   R25,X
	MOVW R26,R0
	.ENDM

	.MACRO __GETBRSX
	MOVW R30,R28
	SUBI R30,LOW(-@1)
	SBCI R31,HIGH(-@1)
	LD   R@0,Z
	.ENDM

	.MACRO __GETWRSX
	MOVW R30,R28
	SUBI R30,LOW(-@2)
	SBCI R31,HIGH(-@2)
	LD   R@0,Z+
	LD   R@1,Z
	.ENDM

	.MACRO __GETBRSX2
	MOVW R26,R28
	SUBI R26,LOW(-@1)
	SBCI R27,HIGH(-@1)
	LD   R@0,X
	.ENDM

	.MACRO __GETWRSX2
	MOVW R26,R28
	SUBI R26,LOW(-@2)
	SBCI R27,HIGH(-@2)
	LD   R@0,X+
	LD   R@1,X
	.ENDM

	.MACRO __LSLW8SX
	MOVW R30,R28
	SUBI R30,LOW(-@0)
	SBCI R31,HIGH(-@0)
	LD   R31,Z
	CLR  R30
	.ENDM

	.MACRO __PUTB1SX
	MOVW R26,R28
	SUBI R26,LOW(-@0)
	SBCI R27,HIGH(-@0)
	ST   X,R30
	.ENDM

	.MACRO __PUTW1SX
	MOVW R26,R28
	SUBI R26,LOW(-@0)
	SBCI R27,HIGH(-@0)
	ST   X+,R30
	ST   X,R31
	.ENDM

	.MACRO __PUTD1SX
	MOVW R26,R28
	SUBI R26,LOW(-@0)
	SBCI R27,HIGH(-@0)
	ST   X+,R30
	ST   X+,R31
	ST   X+,R22
	ST   X,R23
	.ENDM

	.MACRO __CLRW1SX
	MOVW R26,R28
	SUBI R26,LOW(-@0)
	SBCI R27,HIGH(-@0)
	ST   X+,R30
	ST   X,R30
	.ENDM

	.MACRO __CLRD1SX
	MOVW R26,R28
	SUBI R26,LOW(-@0)
	SBCI R27,HIGH(-@0)
	ST   X+,R30
	ST   X+,R30
	ST   X+,R30
	ST   X,R30
	.ENDM

	.MACRO __PUTB2SX
	MOVW R30,R28
	SUBI R30,LOW(-@0)
	SBCI R31,HIGH(-@0)
	ST   Z,R26
	.ENDM

	.MACRO __PUTW2SX
	MOVW R30,R28
	SUBI R30,LOW(-@0)
	SBCI R31,HIGH(-@0)
	ST   Z+,R26
	ST   Z,R27
	.ENDM

	.MACRO __PUTD2SX
	MOVW R30,R28
	SUBI R30,LOW(-@0)
	SBCI R31,HIGH(-@0)
	ST   Z+,R26
	ST   Z+,R27
	ST   Z+,R24
	ST   Z,R25
	.ENDM

	.MACRO __PUTBSRX
	MOVW R30,R28
	SUBI R30,LOW(-@1)
	SBCI R31,HIGH(-@1)
	ST   Z,R@0
	.ENDM

	.MACRO __PUTWSRX
	MOVW R30,R28
	SUBI R30,LOW(-@2)
	SBCI R31,HIGH(-@2)
	ST   Z+,R@0
	ST   Z,R@1
	.ENDM

	.MACRO __PUTB1SNX
	MOVW R26,R28
	SUBI R26,LOW(-@0)
	SBCI R27,HIGH(-@0)
	LD   R0,X+
	LD   R27,X
	MOV  R26,R0
	SUBI R26,LOW(-@1)
	SBCI R27,HIGH(-@1)
	ST   X,R30
	.ENDM

	.MACRO __PUTW1SNX
	MOVW R26,R28
	SUBI R26,LOW(-@0)
	SBCI R27,HIGH(-@0)
	LD   R0,X+
	LD   R27,X
	MOV  R26,R0
	SUBI R26,LOW(-@1)
	SBCI R27,HIGH(-@1)
	ST   X+,R30
	ST   X,R31
	.ENDM

	.MACRO __PUTD1SNX
	MOVW R26,R28
	SUBI R26,LOW(-@0)
	SBCI R27,HIGH(-@0)
	LD   R0,X+
	LD   R27,X
	MOV  R26,R0
	SUBI R26,LOW(-@1)
	SBCI R27,HIGH(-@1)
	ST   X+,R30
	ST   X+,R31
	ST   X+,R22
	ST   X,R23
	.ENDM

	.MACRO __MULBRR
	MULS R@0,R@1
	MOVW R30,R0
	.ENDM

	.MACRO __MULBRRU
	MUL  R@0,R@1
	MOVW R30,R0
	.ENDM

	.MACRO __MULBRR0
	MULS R@0,R@1
	.ENDM

	.MACRO __MULBRRU0
	MUL  R@0,R@1
	.ENDM

	.MACRO __MULBNWRU
	LDI  R26,@2
	MUL  R26,R@0
	MOVW R30,R0
	MUL  R26,R@1
	ADD  R31,R0
	.ENDM

;NAME DEFINITIONS FOR GLOBAL VARIABLES ALLOCATED TO REGISTERS
	.DEF _ADC_MODE_BH=R5
	.DEF __lcd_x=R4
	.DEF __lcd_y=R7
	.DEF __lcd_maxx=R6

	.CSEG
	.ORG 0x00

;START OF CODE MARKER
__START_OF_CODE:

;INTERRUPT VECTORS
	JMP  __RESET
	JMP  0x00
	JMP  0x00
	JMP  0x00
	JMP  0x00
	JMP  0x00
	JMP  0x00
	JMP  0x00
	JMP  0x00
	JMP  0x00
	JMP  0x00
	JMP  0x00
	JMP  0x00
	JMP  0x00
	JMP  0x00
	JMP  0x00
	JMP  0x00
	JMP  0x00
	JMP  0x00
	JMP  0x00
	JMP  0x00

_tbl10_G100:
	.DB  0x10,0x27,0xE8,0x3,0x64,0x0,0xA,0x0
	.DB  0x1,0x0
_tbl16_G100:
	.DB  0x0,0x10,0x0,0x1,0x10,0x0,0x1,0x0

_0x0:
	.DB  0x46,0x4F,0x52,0x43,0x45,0x3A,0x20,0x20
	.DB  0x20,0x20,0x20,0x20,0x20,0x20,0x4B,0x67
	.DB  0x0
_0x2020003:
	.DB  0x80,0xC0
_0x2060060:
	.DB  0x1
_0x2060000:
	.DB  0x2D,0x4E,0x41,0x4E,0x0,0x49,0x4E,0x46
	.DB  0x0

__GLOBAL_INI_TBL:
	.DW  0x02
	.DW  __base_y_G101
	.DW  _0x2020003*2

	.DW  0x01
	.DW  __seed_G103
	.DW  _0x2060060*2

_0xFFFFFFFF:
	.DW  0

__RESET:
	CLI
	CLR  R30
	OUT  EECR,R30

;INTERRUPT VECTORS ARE PLACED
;AT THE START OF FLASH
	LDI  R31,1
	OUT  GICR,R31
	OUT  GICR,R30
	OUT  MCUCR,R30

;DISABLE WATCHDOG
	LDI  R31,0x18
	OUT  WDTCR,R31
	OUT  WDTCR,R30

;CLEAR R2-R14
	LDI  R24,(14-2)+1
	LDI  R26,2
	CLR  R27
__CLEAR_REG:
	ST   X+,R30
	DEC  R24
	BRNE __CLEAR_REG

;CLEAR SRAM
	LDI  R24,LOW(__CLEAR_SRAM_SIZE)
	LDI  R25,HIGH(__CLEAR_SRAM_SIZE)
	LDI  R26,__SRAM_START
__CLEAR_SRAM:
	ST   X+,R30
	SBIW R24,1
	BRNE __CLEAR_SRAM

;GLOBAL VARIABLES INITIALIZATION
	LDI  R30,LOW(__GLOBAL_INI_TBL*2)
	LDI  R31,HIGH(__GLOBAL_INI_TBL*2)
__GLOBAL_INI_NEXT:
	LPM  R24,Z+
	LPM  R25,Z+
	SBIW R24,0
	BREQ __GLOBAL_INI_END
	LPM  R26,Z+
	LPM  R27,Z+
	LPM  R0,Z+
	LPM  R1,Z+
	MOVW R22,R30
	MOVW R30,R0
__GLOBAL_INI_LOOP:
	LPM  R0,Z+
	ST   X+,R0
	SBIW R24,1
	BRNE __GLOBAL_INI_LOOP
	MOVW R30,R22
	RJMP __GLOBAL_INI_NEXT
__GLOBAL_INI_END:

;HARDWARE STACK POINTER INITIALIZATION
	LDI  R30,LOW(__SRAM_END-__HEAP_SIZE)
	OUT  SPL,R30
	LDI  R30,HIGH(__SRAM_END-__HEAP_SIZE)
	OUT  SPH,R30

;DATA STACK POINTER INITIALIZATION
	LDI  R28,LOW(__SRAM_START+__DSTACK_SIZE)
	LDI  R29,HIGH(__SRAM_START+__DSTACK_SIZE)

	JMP  _main

	.ESEG
	.ORG 0

	.DSEG
	.ORG 0x160

	.CSEG
;#include <mega16.h>
	#ifndef __SLEEP_DEFINED__
	#define __SLEEP_DEFINED__
	.EQU __se_bit=0x40
	.EQU __sm_mask=0xB0
	.EQU __sm_powerdown=0x20
	.EQU __sm_powersave=0x30
	.EQU __sm_standby=0xA0
	.EQU __sm_ext_standby=0xB0
	.EQU __sm_adc_noise_red=0x10
	.SET power_ctrl_reg=mcucr
	#endif
;#include <delay.h>
;#include <stdio.h>
;#include <alcd.h>
;#include <spi.h>
;#include <stdlib.h>
;
;#define ADC_RDY         PINC.0
;#define ADC_CS          PORTC.1
;#define SYS_ZERO_MODE   0b11000000
;#define SELF_CALB_MODE  0b10100000
;#define CONT_CNV_MODE   0b00100000
;#define UPDATE_RATE     150
;#define ADC_Vin         1 //0=10mv,1=20mv,2=40mv,3=80mv
;#define MODE_LOW        0b10000000|(16*ADC_Vin)
;
;unsigned char ADC_MODE_BH;
;
;//********************************************************
;
;void RESET_AD7730(void)
; 0000 0016     {

	.CSEG
_RESET_AD7730:
; 0000 0017     ADC_CS=0;
	CBI  0x15,1
; 0000 0018     spi(255);
	LDI  R26,LOW(255)
	CALL _spi
; 0000 0019     spi(255);
	LDI  R26,LOW(255)
	CALL _spi
; 0000 001A     spi(255);
	LDI  R26,LOW(255)
	CALL _spi
; 0000 001B     spi(255);
	LDI  R26,LOW(255)
	RJMP _0x20E0002
; 0000 001C     ADC_CS=1;
; 0000 001D     }
;
;//********************************************************
;
;void ADC_FILTER_SET(void)
; 0000 0022     {
_ADC_FILTER_SET:
; 0000 0023     unsigned int filter;
; 0000 0024     unsigned char filterL,filterH;
; 0000 0025     filter=307200/UPDATE_RATE;
	CALL __SAVELOCR4
;	filter -> R16,R17
;	filterL -> R19
;	filterH -> R18
	__GETWRN 16,17,2048
; 0000 0026     if(filter>2048) filter=2048;
	__CPWRN 16,17,2049
	BRLO _0x7
	__GETWRN 16,17,2048
; 0000 0027     filterL=filter % 16;
_0x7:
	MOV  R30,R16
	ANDI R30,LOW(0xF)
	MOV  R19,R30
; 0000 0028     filterL=filterL*16;
	LDI  R26,LOW(16)
	MULS R19,R26
	MOV  R19,R0
; 0000 0029     filterH=filter / 16;
	MOVW R30,R16
	CALL __LSRW4
	MOV  R18,R30
; 0000 002A     ADC_CS=0;
	CBI  0x15,1
; 0000 002B     spi(0b00000011);
	LDI  R26,LOW(3)
	CALL _spi
; 0000 002C     spi(filterH);
	MOV  R26,R18
	CALL _spi
; 0000 002D     spi(filterL);
	MOV  R26,R19
	CALL _spi
; 0000 002E     spi(0);
	LDI  R26,LOW(0)
	CALL _spi
; 0000 002F     ADC_CS=1;
	SBI  0x15,1
; 0000 0030     }
	CALL __LOADLOCR4
	ADIW R28,4
	RET
;
;//********************************************************
;
;void ADC_MODE_SET(void)
; 0000 0035     {
_ADC_MODE_SET:
; 0000 0036     ADC_CS=0;
	CBI  0x15,1
; 0000 0037     spi(0b00000010);
	LDI  R26,LOW(2)
	CALL _spi
; 0000 0038     spi(ADC_MODE_BH);
	MOV  R26,R5
	CALL _spi
; 0000 0039     spi(MODE_LOW);
	LDI  R26,LOW(144)
_0x20E0002:
	CALL _spi
; 0000 003A     ADC_CS=1;
	SBI  0x15,1
; 0000 003B     }
	RET
;
;//********************************************************
;
;unsigned int ADC_READ_DATA(void)
; 0000 0040     {
_ADC_READ_DATA:
; 0000 0041     unsigned int adc_val;
; 0000 0042     ADC_CS=0;
	ST   -Y,R17
	ST   -Y,R16
;	adc_val -> R16,R17
	CBI  0x15,1
; 0000 0043     spi(0b00010001);
	LDI  R26,LOW(17)
	CALL _spi
; 0000 0044     adc_val=(unsigned int) spi(255)*256 + spi(255);
	LDI  R26,LOW(255)
	CALL _spi
	MOV  R31,R30
	LDI  R30,0
	PUSH R31
	PUSH R30
	LDI  R26,LOW(255)
	CALL _spi
	LDI  R31,0
	POP  R26
	POP  R27
	ADD  R30,R26
	ADC  R31,R27
	MOVW R16,R30
; 0000 0045     ADC_CS=1;
	SBI  0x15,1
; 0000 0046     return(adc_val);
	MOVW R30,R16
	LD   R16,Y+
	LD   R17,Y+
	RET
; 0000 0047     }
;
;//********************************************************
;
;void main(void)
; 0000 004C {
_main:
; 0000 004D unsigned int ADC;
; 0000 004E bit ADC_SEL,ZERO_ADC;
; 0000 004F unsigned char sum_cntr,ADC1,ADC2;
; 0000 0050 unsigned long int sum;
; 0000 0051 PORTA=0x00;
	SBIW R28,4
;	ADC -> R16,R17
;	ADC_SEL -> R15.0
;	ZERO_ADC -> R15.1
;	sum_cntr -> R19
;	ADC1 -> R18
;	ADC2 -> R21
;	sum -> Y+0
	LDI  R30,LOW(0)
	OUT  0x1B,R30
; 0000 0052 DDRA=0x00;
	OUT  0x1A,R30
; 0000 0053 
; 0000 0054 PORTB=0x00;
	OUT  0x18,R30
; 0000 0055 DDRB=0b10111111;
	LDI  R30,LOW(191)
	OUT  0x17,R30
; 0000 0056 
; 0000 0057 PORTC=0x00;
	LDI  R30,LOW(0)
	OUT  0x15,R30
; 0000 0058 DDRC=0b11111110;
	LDI  R30,LOW(254)
	OUT  0x14,R30
; 0000 0059 
; 0000 005A PORTD=0x00;
	LDI  R30,LOW(0)
	OUT  0x12,R30
; 0000 005B DDRD=0xff;
	LDI  R30,LOW(255)
	OUT  0x11,R30
; 0000 005C 
; 0000 005D // USART initialization
; 0000 005E // Communication Parameters: 8 Data, 1 Stop, No Parity
; 0000 005F // USART Receiver: On
; 0000 0060 // USART Transmitter: On
; 0000 0061 // USART Mode: Asynchronous
; 0000 0062 // USART Baud Rate: 9600
; 0000 0063 UCSRA=0x00;
	LDI  R30,LOW(0)
	OUT  0xB,R30
; 0000 0064 UCSRB=0x18;
	LDI  R30,LOW(24)
	OUT  0xA,R30
; 0000 0065 UCSRC=0x86;
	LDI  R30,LOW(134)
	OUT  0x20,R30
; 0000 0066 UBRRH=0x00;
	LDI  R30,LOW(0)
	OUT  0x20,R30
; 0000 0067 UBRRL=0x33;
	LDI  R30,LOW(51)
	OUT  0x9,R30
; 0000 0068 
; 0000 0069 // SPI initialization
; 0000 006A // SPI Type: Master
; 0000 006B // SPI Clock Rate: 250.000 kHz
; 0000 006C // SPI Clock Phase: Cycle Half
; 0000 006D // SPI Clock Polarity: High
; 0000 006E // SPI Data Order: MSB First
; 0000 006F SPCR=0x54;
	LDI  R30,LOW(84)
	OUT  0xD,R30
; 0000 0070 SPSR=0x00;
	LDI  R30,LOW(0)
	OUT  0xE,R30
; 0000 0071 
; 0000 0072 lcd_init(16);
	LDI  R26,LOW(16)
	CALL _lcd_init
; 0000 0073 lcd_clear();
	CALL _lcd_clear
; 0000 0074 lcd_gotoxy(0,0);
	LDI  R30,LOW(0)
	CALL SUBOPT_0x0
; 0000 0075 lcd_putsf("FORCE:        Kg");
	__POINTW2FN _0x0,0
	CALL _lcd_putsf
; 0000 0076 
; 0000 0077 RESET_AD7730();
	RCALL _RESET_AD7730
; 0000 0078 ADC_FILTER_SET();
	RCALL _ADC_FILTER_SET
; 0000 0079 ADC_MODE_BH=SYS_ZERO_MODE;
	LDI  R30,LOW(192)
	MOV  R5,R30
; 0000 007A ADC_MODE_SET();
	RCALL _ADC_MODE_SET
; 0000 007B ADC_MODE_BH= CONT_CNV_MODE;
	LDI  R30,LOW(32)
	MOV  R5,R30
; 0000 007C ADC_MODE_SET();
	RCALL _ADC_MODE_SET
; 0000 007D delay_ms(1000);
	LDI  R26,LOW(1000)
	LDI  R27,HIGH(1000)
	CALL _delay_ms
; 0000 007E ZERO_ADC=0;
	CLT
	BLD  R15,1
; 0000 007F ADC_SEL=1;
	SET
	BLD  R15,0
; 0000 0080 sum_cntr=0;
	LDI  R19,LOW(0)
; 0000 0081 sum=0;
	LDI  R30,LOW(0)
	CALL __CLRD1S0
; 0000 0082 ADC=0;
	__GETWRN 16,17,0
; 0000 0083 
; 0000 0084 while (1)
_0x14:
; 0000 0085   {
; 0000 0086 
; 0000 0087 
; 0000 0088     //********************************************************************
; 0000 0089 
; 0000 008A     if(ADC_RDY==0)
	SBIC 0x13,0
	RJMP _0x17
; 0000 008B         {
; 0000 008C 
; 0000 008D                ADC=ADC_READ_DATA();
	RCALL _ADC_READ_DATA
	MOVW R16,R30
; 0000 008E                 sum=sum+ADC;
	MOVW R30,R16
	CALL __GETD2S0
	CLR  R22
	CLR  R23
	CALL __ADDD12
	CALL __PUTD1S0
; 0000 008F                 if(++sum_cntr==50)
	SUBI R19,-LOW(1)
	CPI  R19,50
	BRNE _0x18
; 0000 0090                     {
; 0000 0091                     sum_cntr=0;
	LDI  R19,LOW(0)
; 0000 0092                     ADC=sum/50;
	CALL __GETD2S0
	__GETD1N 0x32
	CALL __DIVD21U
	MOVW R16,R30
; 0000 0093                     sum=0;
	LDI  R30,LOW(0)
	CALL __CLRD1S0
; 0000 0094                     ADC&=0xFFFC;
	ANDI R16,LOW(65532)
; 0000 0095 
; 0000 0096                     ADC1=ADC;
	MOV  R18,R16
; 0000 0097                     ADC2=ADC>>8;
	MOV  R21,R17
; 0000 0098                     putchar (ADC1);
	MOV  R26,R18
	RCALL _putchar
; 0000 0099                     putchar (ADC2);
	MOV  R26,R21
	RCALL _putchar
; 0000 009A 
; 0000 009B                      lcd_gotoxy(11,0);
	LDI  R30,LOW(11)
	CALL SUBOPT_0x0
; 0000 009C                       lcd_putchar((ADC%10)+48);
	CALL SUBOPT_0x1
; 0000 009D                          ADC/=10;
; 0000 009E                     lcd_gotoxy(10,0);
	LDI  R30,LOW(10)
	CALL SUBOPT_0x0
; 0000 009F                       lcd_putchar((ADC%10)+48);
	CALL SUBOPT_0x1
; 0000 00A0                         ADC/=10;
; 0000 00A1                      lcd_gotoxy(9,0);
	LDI  R30,LOW(9)
	CALL SUBOPT_0x0
; 0000 00A2                       lcd_putchar((ADC%10)+48);
	CALL SUBOPT_0x1
; 0000 00A3                         ADC/=10;
; 0000 00A4                      lcd_gotoxy(8,0);
	LDI  R30,LOW(8)
	CALL SUBOPT_0x0
; 0000 00A5                         lcd_putchar((ADC%10)+48);
	CALL SUBOPT_0x1
; 0000 00A6                              ADC/=10;
; 0000 00A7                      lcd_gotoxy(7,0);
	LDI  R30,LOW(7)
	CALL SUBOPT_0x0
; 0000 00A8                         lcd_putchar((ADC%10)+48);
	CALL SUBOPT_0x1
; 0000 00A9                            ADC/=10;
; 0000 00AA 
; 0000 00AB                     };
_0x18:
; 0000 00AC 
; 0000 00AD 
; 0000 00AE         };
_0x17:
; 0000 00AF 
; 0000 00B0    }
	RJMP _0x14
; 0000 00B1    }
_0x19:
	RJMP _0x19
;
;
;
;
;
;
;
;
;
;
;
;
;
;
;
;
;
;
;
;
;
;
;    /*
;
;
;
;
;     if(ADC_RDY==0){
;      ADC=ADC_READ_DATA();
;
;       ADC=ADC_READ_DATA();
;                sum=sum+ADC;
;                if(++sum_cntr==50)
;                    {
;                    sum_cntr=0;
;                    ADC=sum/50;
;                    sum=0;
;
;                       lcd_gotoxy(11,0);
;                      lcd_putchar((ADC%10)+48);
;                         ADC/=10;
;                    lcd_gotoxy(10,0);
;                      lcd_putchar((ADC%10)+48);
;                        ADC/=10;
;                     lcd_gotoxy(9,0);
;                      lcd_putchar((ADC%10)+48);
;                        ADC/=10;
;                     lcd_gotoxy(8,0);
;                        lcd_putchar((ADC%10)+48);
;                             ADC/=10;
;                     lcd_gotoxy(7,0);
;                        lcd_putchar((ADC%10)+48);
;                           ADC/=10;
;
;         }
;
;
;
;    };
;}
;
;}
;
;  */
;
;
;
;
;
;
;
;
;
;
;
;
;
;
;
;
;
;
;
;
;
;
;
;
;
;
;
;
;
;
;
;
;      //********************************************************************
;     /* if(ADC_RDY==0)
;        { PORTC.2=1;
;
;        if(ZERO_ADC)
;            {
;            ADC_MODE_BH=SYS_ZERO_MODE;
;            ADC_MODE_SET();
;            ZERO_ADC=0;
;            ADC_SEL=1;
;            }
;        else
;            {
;            if(ADC_SEL)
;                {
;                ADC_SEL=0;
;                ADC_MODE_BH=CONT_CNV_MODE;
;                ADC_MODE_SET();
;                }
;            else
;                {
;                temp=ADC_READ_DATA();
;                sum=sum+temp;
;                if(++sum_cntr==50)
;                    {
;                    sum_cntr=0;
;                    ADC=sum/50;
;                    sum=0;
;                     temp=ADC_READ_DATA();
;                     lcd_gotoxy(11,0);
;                      lcd_putchar((ADC%10)+48);
;                         ADC/10;
;                    lcd_gotoxy(10,0);
;                      lcd_putchar((ADC%10)+48);
;                        ADC/10;
;                     lcd_gotoxy(9,0);
;                      lcd_putchar((ADC%10)+48);
;                        ADC/10;
;                     lcd_gotoxy(8,0);
;                        lcd_putchar((ADC%10)+48);
;                             ADC/10;
;                     lcd_gotoxy(7,0);
;                        lcd_putchar((ADC%10)+48);
;                           ADC/10;
;
;
;                    // ftoa((ADC-32768)/100,2,str1);
;                     //lcd_gotoxy(7,0);
;                     //lcd_puts(str1);
;                    };
;                };
;            };
;        };                      */
;
	#ifndef __SLEEP_DEFINED__
	#define __SLEEP_DEFINED__
	.EQU __se_bit=0x40
	.EQU __sm_mask=0xB0
	.EQU __sm_powerdown=0x20
	.EQU __sm_powersave=0x30
	.EQU __sm_standby=0xA0
	.EQU __sm_ext_standby=0xB0
	.EQU __sm_adc_noise_red=0x10
	.SET power_ctrl_reg=mcucr
	#endif

	.CSEG
_putchar:
	ST   -Y,R26
putchar0:
     sbis usr,udre
     rjmp putchar0
     ld   r30,y
     out  udr,r30
	JMP  _0x20E0001
	#ifndef __SLEEP_DEFINED__
	#define __SLEEP_DEFINED__
	.EQU __se_bit=0x40
	.EQU __sm_mask=0xB0
	.EQU __sm_powerdown=0x20
	.EQU __sm_powersave=0x30
	.EQU __sm_standby=0xA0
	.EQU __sm_ext_standby=0xB0
	.EQU __sm_adc_noise_red=0x10
	.SET power_ctrl_reg=mcucr
	#endif

	.DSEG

	.CSEG
__lcd_write_nibble_G101:
	ST   -Y,R26
	IN   R30,0x1B
	ANDI R30,LOW(0xF)
	MOV  R26,R30
	LD   R30,Y
	ANDI R30,LOW(0xF0)
	OR   R30,R26
	OUT  0x1B,R30
	__DELAY_USB 1
	SBI  0x1B,2
	__DELAY_USB 2
	CBI  0x1B,2
	__DELAY_USB 2
	RJMP _0x20E0001
__lcd_write_data:
	ST   -Y,R26
	LD   R26,Y
	RCALL __lcd_write_nibble_G101
    ld    r30,y
    swap  r30
    st    y,r30
	LD   R26,Y
	RCALL __lcd_write_nibble_G101
	__DELAY_USB 17
	RJMP _0x20E0001
_lcd_gotoxy:
	ST   -Y,R26
	LD   R30,Y
	LDI  R31,0
	SUBI R30,LOW(-__base_y_G101)
	SBCI R31,HIGH(-__base_y_G101)
	LD   R30,Z
	LDD  R26,Y+1
	ADD  R26,R30
	RCALL __lcd_write_data
	LDD  R4,Y+1
	LDD  R7,Y+0
	ADIW R28,2
	RET
_lcd_clear:
	LDI  R26,LOW(2)
	CALL SUBOPT_0x2
	LDI  R26,LOW(12)
	RCALL __lcd_write_data
	LDI  R26,LOW(1)
	CALL SUBOPT_0x2
	LDI  R30,LOW(0)
	MOV  R7,R30
	MOV  R4,R30
	RET
_lcd_putchar:
	ST   -Y,R26
	LD   R26,Y
	CPI  R26,LOW(0xA)
	BREQ _0x2020005
	CP   R4,R6
	BRLO _0x2020004
_0x2020005:
	LDI  R30,LOW(0)
	ST   -Y,R30
	INC  R7
	MOV  R26,R7
	RCALL _lcd_gotoxy
	LD   R26,Y
	CPI  R26,LOW(0xA)
	BRNE _0x2020007
	RJMP _0x20E0001
_0x2020007:
_0x2020004:
	INC  R4
	SBI  0x1B,0
	LD   R26,Y
	RCALL __lcd_write_data
	CBI  0x1B,0
	RJMP _0x20E0001
_lcd_putsf:
	ST   -Y,R27
	ST   -Y,R26
	ST   -Y,R17
_0x202000B:
	LDD  R30,Y+1
	LDD  R31,Y+1+1
	ADIW R30,1
	STD  Y+1,R30
	STD  Y+1+1,R31
	SBIW R30,1
	LPM  R30,Z
	MOV  R17,R30
	CPI  R30,0
	BREQ _0x202000D
	MOV  R26,R17
	RCALL _lcd_putchar
	RJMP _0x202000B
_0x202000D:
	LDD  R17,Y+0
	ADIW R28,3
	RET
_lcd_init:
	ST   -Y,R26
	IN   R30,0x1A
	ORI  R30,LOW(0xF0)
	OUT  0x1A,R30
	SBI  0x1A,2
	SBI  0x1A,0
	SBI  0x1A,1
	CBI  0x1B,2
	CBI  0x1B,0
	CBI  0x1B,1
	LDD  R6,Y+0
	LD   R30,Y
	SUBI R30,-LOW(128)
	__PUTB1MN __base_y_G101,2
	LD   R30,Y
	SUBI R30,-LOW(192)
	__PUTB1MN __base_y_G101,3
	LDI  R26,LOW(20)
	LDI  R27,0
	CALL _delay_ms
	CALL SUBOPT_0x3
	CALL SUBOPT_0x3
	CALL SUBOPT_0x3
	LDI  R26,LOW(32)
	RCALL __lcd_write_nibble_G101
	__DELAY_USB 33
	LDI  R26,LOW(40)
	RCALL __lcd_write_data
	LDI  R26,LOW(4)
	RCALL __lcd_write_data
	LDI  R26,LOW(133)
	RCALL __lcd_write_data
	LDI  R26,LOW(6)
	RCALL __lcd_write_data
	RCALL _lcd_clear
	RJMP _0x20E0001
	#ifndef __SLEEP_DEFINED__
	#define __SLEEP_DEFINED__
	.EQU __se_bit=0x40
	.EQU __sm_mask=0xB0
	.EQU __sm_powerdown=0x20
	.EQU __sm_powersave=0x30
	.EQU __sm_standby=0xA0
	.EQU __sm_ext_standby=0xB0
	.EQU __sm_adc_noise_red=0x10
	.SET power_ctrl_reg=mcucr
	#endif

	.CSEG
_spi:
	ST   -Y,R26
	LD   R30,Y
	OUT  0xF,R30
_0x2040003:
	SBIS 0xE,7
	RJMP _0x2040003
	IN   R30,0xF
_0x20E0001:
	ADIW R28,1
	RET

	.CSEG

	.DSEG

	.CSEG

	.CSEG

	.CSEG

	.CSEG

	.DSEG
__base_y_G101:
	.BYTE 0x4
__seed_G103:
	.BYTE 0x4

	.CSEG
;OPTIMIZER ADDED SUBROUTINE, CALLED 6 TIMES, CODE SIZE REDUCTION:7 WORDS
SUBOPT_0x0:
	ST   -Y,R30
	LDI  R26,LOW(0)
	JMP  _lcd_gotoxy

;OPTIMIZER ADDED SUBROUTINE, CALLED 5 TIMES, CODE SIZE REDUCTION:49 WORDS
SUBOPT_0x1:
	MOVW R26,R16
	LDI  R30,LOW(10)
	LDI  R31,HIGH(10)
	CALL __MODW21U
	SUBI R30,-LOW(48)
	MOV  R26,R30
	CALL _lcd_putchar
	MOVW R26,R16
	LDI  R30,LOW(10)
	LDI  R31,HIGH(10)
	CALL __DIVW21U
	MOVW R16,R30
	RET

;OPTIMIZER ADDED SUBROUTINE, CALLED 2 TIMES, CODE SIZE REDUCTION:3 WORDS
SUBOPT_0x2:
	CALL __lcd_write_data
	LDI  R26,LOW(3)
	LDI  R27,0
	JMP  _delay_ms

;OPTIMIZER ADDED SUBROUTINE, CALLED 3 TIMES, CODE SIZE REDUCTION:5 WORDS
SUBOPT_0x3:
	LDI  R26,LOW(48)
	CALL __lcd_write_nibble_G101
	__DELAY_USB 33
	RET


	.CSEG
_delay_ms:
	adiw r26,0
	breq __delay_ms1
__delay_ms0:
	__DELAY_USW 0xFA
	wdr
	sbiw r26,1
	brne __delay_ms0
__delay_ms1:
	ret

__ADDD12:
	ADD  R30,R26
	ADC  R31,R27
	ADC  R22,R24
	ADC  R23,R25
	RET

__LSRW4:
	LSR  R31
	ROR  R30
__LSRW3:
	LSR  R31
	ROR  R30
__LSRW2:
	LSR  R31
	ROR  R30
	LSR  R31
	ROR  R30
	RET

__DIVW21U:
	CLR  R0
	CLR  R1
	LDI  R25,16
__DIVW21U1:
	LSL  R26
	ROL  R27
	ROL  R0
	ROL  R1
	SUB  R0,R30
	SBC  R1,R31
	BRCC __DIVW21U2
	ADD  R0,R30
	ADC  R1,R31
	RJMP __DIVW21U3
__DIVW21U2:
	SBR  R26,1
__DIVW21U3:
	DEC  R25
	BRNE __DIVW21U1
	MOVW R30,R26
	MOVW R26,R0
	RET

__DIVD21U:
	PUSH R19
	PUSH R20
	PUSH R21
	CLR  R0
	CLR  R1
	CLR  R20
	CLR  R21
	LDI  R19,32
__DIVD21U1:
	LSL  R26
	ROL  R27
	ROL  R24
	ROL  R25
	ROL  R0
	ROL  R1
	ROL  R20
	ROL  R21
	SUB  R0,R30
	SBC  R1,R31
	SBC  R20,R22
	SBC  R21,R23
	BRCC __DIVD21U2
	ADD  R0,R30
	ADC  R1,R31
	ADC  R20,R22
	ADC  R21,R23
	RJMP __DIVD21U3
__DIVD21U2:
	SBR  R26,1
__DIVD21U3:
	DEC  R19
	BRNE __DIVD21U1
	MOVW R30,R26
	MOVW R22,R24
	MOVW R26,R0
	MOVW R24,R20
	POP  R21
	POP  R20
	POP  R19
	RET

__MODW21U:
	RCALL __DIVW21U
	MOVW R30,R26
	RET

__GETD2S0:
	LD   R26,Y
	LDD  R27,Y+1
	LDD  R24,Y+2
	LDD  R25,Y+3
	RET

__PUTD1S0:
	ST   Y,R30
	STD  Y+1,R31
	STD  Y+2,R22
	STD  Y+3,R23
	RET

__CLRD1S0:
	ST   Y,R30
	STD  Y+1,R30
	STD  Y+2,R30
	STD  Y+3,R30
	RET

__SAVELOCR4:
	ST   -Y,R19
__SAVELOCR3:
	ST   -Y,R18
__SAVELOCR2:
	ST   -Y,R17
	ST   -Y,R16
	RET

__LOADLOCR4:
	LDD  R19,Y+3
__LOADLOCR3:
	LDD  R18,Y+2
__LOADLOCR2:
	LDD  R17,Y+1
	LD   R16,Y
	RET

;END OF CODE MARKER
__END_OF_CODE:
